target datalayout = "e-m:e-p270:32:32-p271:32:32-p272:64:64-i64:64-i128:128-f80:128-n8:16:32:64-S128"
target triple = "x86_64-pc-linux-gnu"

%struct.aead_chacha20_poly1305_ctx = type { [32 x i8], i8 }
%struct.evp_aead_ctx_st = type { ptr, ptr }

@.str = private unnamed_addr constant [138 x i8] c"generated/home/dtcxzyw/WorkSpace/Projects/compilers/llvm-opt-benchmark/bench/libquic/libquic/boringssl/crypto/cipher/e_chacha20poly1305.c\00", align 1

; Function Attrs: nounwind uwtable
define internal void @aead_poly1305(ptr noundef %0, ptr noundef %1, ptr noundef %2, ptr noundef %3, ptr noundef %4, i64 noundef %5, ptr noundef %6, i64 noundef %7) #0 {
  %9 = alloca ptr, align 8
  %10 = alloca ptr, align 8
  %11 = alloca ptr, align 8
  %12 = alloca ptr, align 8
  %13 = alloca ptr, align 8
  %14 = alloca i64, align 8
  %15 = alloca ptr, align 8
  %16 = alloca i64, align 8
  %17 = alloca [32 x i8], align 16
  %18 = alloca [512 x i8], align 16
  store ptr %0, ptr %9, align 8, !tbaa !24
  store ptr %1, ptr %10, align 8, !tbaa !11
  store ptr %2, ptr %11, align 8, !tbaa !15
  store ptr %3, ptr %12, align 8, !tbaa !11
  store ptr %4, ptr %13, align 8, !tbaa !11
  store i64 %5, ptr %14, align 8, !tbaa !13
  store ptr %6, ptr %15, align 8, !tbaa !11
  store i64 %7, ptr %16, align 8, !tbaa !13
  call void @llvm.lifetime.start.p0(i64 32, ptr %17) #7
  %19 = getelementptr inbounds [32 x i8], ptr %17, i64 0, i64 0
  call void @llvm.memset.p0.i64(ptr align 16 %19, i8 0, i64 32, i1 false)
  %20 = getelementptr inbounds [32 x i8], ptr %17, i64 0, i64 0
  %21 = getelementptr inbounds [32 x i8], ptr %17, i64 0, i64 0
  %22 = load ptr, ptr %11, align 8, !tbaa !15
  %23 = getelementptr inbounds nuw %struct.aead_chacha20_poly1305_ctx, ptr %22, i32 0, i32 0
  %24 = getelementptr inbounds [32 x i8], ptr %23, i64 0, i64 0
  %25 = load ptr, ptr %12, align 8, !tbaa !11
  call void @CRYPTO_chacha_20(ptr noundef %20, ptr noundef %21, i64 noundef 32, ptr noundef %24, ptr noundef %25, i32 noundef 0)
  call void @llvm.lifetime.start.p0(i64 512, ptr %18) #7
  %26 = getelementptr inbounds [32 x i8], ptr %17, i64 0, i64 0
  call void @CRYPTO_poly1305_init(ptr noundef %18, ptr noundef %26)
  %27 = load ptr, ptr %9, align 8, !tbaa !24
  %28 = load ptr, ptr %13, align 8, !tbaa !11
  %29 = load i64, ptr %14, align 8, !tbaa !13
  %30 = load ptr, ptr %15, align 8, !tbaa !11
  %31 = load i64, ptr %16, align 8, !tbaa !13
  call void %27(ptr noundef %18, ptr noundef %28, i64 noundef %29, ptr noundef %30, i64 noundef %31)
  %32 = load ptr, ptr %10, align 8, !tbaa !11
  call void @CRYPTO_poly1305_finish(ptr noundef %18, ptr noundef %32)
  call void @llvm.lifetime.end.p0(i64 512, ptr %18) #7
  call void @llvm.lifetime.end.p0(i64 32, ptr %17) #7
  ret void
}

; Function Attrs: nounwind uwtable
define internal i32 @seal_impl(ptr noundef %0, ptr noundef %1, ptr noundef %2, ptr noundef %3, i64 noundef %4, ptr noundef %5, ptr noundef %6, i64 noundef %7, ptr noundef %8, i64 noundef %9) #0 {
  %11 = alloca i32, align 4
  %12 = alloca ptr, align 8
  %13 = alloca ptr, align 8
  %14 = alloca ptr, align 8
  %15 = alloca ptr, align 8
  %16 = alloca i64, align 8
  %17 = alloca ptr, align 8
  %18 = alloca ptr, align 8
  %19 = alloca i64, align 8
  %20 = alloca ptr, align 8
  %21 = alloca i64, align 8
  %22 = alloca ptr, align 8
  %23 = alloca i64, align 8
  %24 = alloca i32, align 4
  %25 = alloca [16 x i8], align 16
  store ptr %0, ptr %12, align 8, !tbaa !24
  store ptr %1, ptr %13, align 8, !tbaa !6
  store ptr %2, ptr %14, align 8, !tbaa !11
  store ptr %3, ptr %15, align 8, !tbaa !22
  store i64 %4, ptr %16, align 8, !tbaa !13
  store ptr %5, ptr %17, align 8, !tbaa !11
  store ptr %6, ptr %18, align 8, !tbaa !11
  store i64 %7, ptr %19, align 8, !tbaa !13
  store ptr %8, ptr %20, align 8, !tbaa !11
  store i64 %9, ptr %21, align 8, !tbaa !13
  call void @llvm.lifetime.start.p0(i64 8, ptr %22) #7
  %26 = load ptr, ptr %13, align 8, !tbaa !6
  %27 = getelementptr inbounds nuw %struct.evp_aead_ctx_st, ptr %26, i32 0, i32 1
  %28 = load ptr, ptr %27, align 8, !tbaa !19
  store ptr %28, ptr %22, align 8, !tbaa !15
  call void @llvm.lifetime.start.p0(i64 8, ptr %23) #7
  %29 = load i64, ptr %19, align 8, !tbaa !13
  store i64 %29, ptr %23, align 8, !tbaa !13
  %30 = load i64, ptr %23, align 8, !tbaa !13
  %31 = icmp uge i64 %30, 274877906880
  br i1 %31, label %32, label %33

32:                                               ; preds = %10
  call void @ERR_put_error(i32 noundef 30, i32 noundef 0, i32 noundef 117, ptr noundef @.str, i32 noundef 121)
  store i32 0, ptr %11, align 4
  store i32 1, ptr %24, align 4
  br label %84

33:                                               ; preds = %10
  %34 = load i64, ptr %19, align 8, !tbaa !13
  %35 = load ptr, ptr %22, align 8, !tbaa !15
  %36 = getelementptr inbounds nuw %struct.aead_chacha20_poly1305_ctx, ptr %35, i32 0, i32 1
  %37 = load i8, ptr %36, align 1, !tbaa !17
  %38 = zext i8 %37 to i64
  %39 = add i64 %34, %38
  %40 = load i64, ptr %19, align 8, !tbaa !13
  %41 = icmp ult i64 %39, %40
  br i1 %41, label %42, label %43

42:                                               ; preds = %33
  call void @ERR_put_error(i32 noundef 30, i32 noundef 0, i32 noundef 117, ptr noundef @.str, i32 noundef 126)
  store i32 0, ptr %11, align 4
  store i32 1, ptr %24, align 4
  br label %84

43:                                               ; preds = %33
  %44 = load i64, ptr %16, align 8, !tbaa !13
  %45 = load i64, ptr %19, align 8, !tbaa !13
  %46 = load ptr, ptr %22, align 8, !tbaa !15
  %47 = getelementptr inbounds nuw %struct.aead_chacha20_poly1305_ctx, ptr %46, i32 0, i32 1
  %48 = load i8, ptr %47, align 1, !tbaa !17
  %49 = zext i8 %48 to i64
  %50 = add i64 %45, %49
  %51 = icmp ult i64 %44, %50
  br i1 %51, label %52, label %53

52:                                               ; preds = %43
  call void @ERR_put_error(i32 noundef 30, i32 noundef 0, i32 noundef 103, ptr noundef @.str, i32 noundef 131)
  store i32 0, ptr %11, align 4
  store i32 1, ptr %24, align 4
  br label %84

53:                                               ; preds = %43
  %54 = load ptr, ptr %14, align 8, !tbaa !11
  %55 = load ptr, ptr %18, align 8, !tbaa !11
  %56 = load i64, ptr %19, align 8, !tbaa !13
  %57 = load ptr, ptr %22, align 8, !tbaa !15
  %58 = getelementptr inbounds nuw %struct.aead_chacha20_poly1305_ctx, ptr %57, i32 0, i32 0
  %59 = getelementptr inbounds [32 x i8], ptr %58, i64 0, i64 0
  %60 = load ptr, ptr %17, align 8, !tbaa !11
  call void @CRYPTO_chacha_20(ptr noundef %54, ptr noundef %55, i64 noundef %56, ptr noundef %59, ptr noundef %60, i32 noundef 1)
  call void @llvm.lifetime.start.p0(i64 16, ptr %25) #7
  %61 = load ptr, ptr %12, align 8, !tbaa !24
  %62 = getelementptr inbounds [16 x i8], ptr %25, i64 0, i64 0
  %63 = load ptr, ptr %22, align 8, !tbaa !15
  %64 = load ptr, ptr %17, align 8, !tbaa !11
  %65 = load ptr, ptr %20, align 8, !tbaa !11
  %66 = load i64, ptr %21, align 8, !tbaa !13
  %67 = load ptr, ptr %14, align 8, !tbaa !11
  %68 = load i64, ptr %19, align 8, !tbaa !13
  call void @aead_poly1305(ptr noundef %61, ptr noundef %62, ptr noundef %63, ptr noundef %64, ptr noundef %65, i64 noundef %66, ptr noundef %67, i64 noundef %68)
  %69 = load ptr, ptr %14, align 8, !tbaa !11
  %70 = load i64, ptr %19, align 8, !tbaa !13
  %71 = getelementptr inbounds nuw i8, ptr %69, i64 %70
  %72 = getelementptr inbounds [16 x i8], ptr %25, i64 0, i64 0
  %73 = load ptr, ptr %22, align 8, !tbaa !15
  %74 = getelementptr inbounds nuw %struct.aead_chacha20_poly1305_ctx, ptr %73, i32 0, i32 1
  %75 = load i8, ptr %74, align 1, !tbaa !17
  %76 = zext i8 %75 to i64
  call void @llvm.memcpy.p0.p0.i64(ptr align 1 %71, ptr align 16 %72, i64 %76, i1 false)
  %77 = load i64, ptr %19, align 8, !tbaa !13
  %78 = load ptr, ptr %22, align 8, !tbaa !15
  %79 = getelementptr inbounds nuw %struct.aead_chacha20_poly1305_ctx, ptr %78, i32 0, i32 1
  %80 = load i8, ptr %79, align 1, !tbaa !17
  %81 = zext i8 %80 to i64
  %82 = add i64 %77, %81
  %83 = load ptr, ptr %15, align 8, !tbaa !22
  store i64 %82, ptr %83, align 8, !tbaa !13
  store i32 1, ptr %11, align 4
  store i32 1, ptr %24, align 4
  call void @llvm.lifetime.end.p0(i64 16, ptr %25) #7
  br label %84

84:                                               ; preds = %53, %52, %42, %32
  call void @llvm.lifetime.end.p0(i64 8, ptr %23) #7
  call void @llvm.lifetime.end.p0(i64 8, ptr %22) #7
  %85 = load i32, ptr %11, align 4
  ret i32 %85
}