; Function Attrs: nounwind uwtable
define internal fastcc range(i32 0, 2) i32 @seal_impl(ptr noundef readonly captures(none) %0, ptr %.8.val, ptr noundef %1, ptr noundef writeonly captures(none) %2, i64 noundef %3, ptr noundef %4, ptr noundef %5, i64 noundef %6, ptr noundef %7, i64 noundef %8) unnamed_addr #1 {
  %10 = alloca [32 x i8], align 16
  %11 = alloca [512 x i8], align 16
  %12 = alloca [16 x i8], align 16
  %13 = icmp ugt i64 %6, 274877906879
  br i1 %13, label %14, label %15

14:                                               ; preds = %9
  tail call void @ERR_put_error(i32 noundef 30, i32 noundef 0, i32 noundef 117, ptr noundef nonnull @.str, i32 noundef 121) #8
  br label %29

15:                                               ; preds = %9
  %16 = getelementptr inbounds nuw i8, ptr %.8.val, i64 32
  %17 = load i8, ptr %16, align 1, !tbaa !6
  %18 = zext i8 %17 to i64
  %19 = add nuw nsw i64 %6, %18
  %20 = icmp ult i64 %3, %19
  br i1 %20, label %21, label %22

21:                                               ; preds = %15
  tail call void @ERR_put_error(i32 noundef 30, i32 noundef 0, i32 noundef 103, ptr noundef nonnull @.str, i32 noundef 131) #8
  br label %29

22:                                               ; preds = %15
  tail call void @CRYPTO_chacha_20(ptr noundef %1, ptr noundef %5, i64 noundef %6, ptr noundef nonnull %.8.val, ptr noundef %4, i32 noundef 1) #8
  call void @llvm.lifetime.start.p0(i64 16, ptr nonnull %12) #8
  call void @llvm.lifetime.start.p0(i64 32, ptr nonnull %10) #8
  call void @llvm.memset.p0.i64(ptr noundef nonnull align 16 dereferenceable(32) %10, i8 0, i64 32, i1 false)
  call void @CRYPTO_chacha_20(ptr noundef nonnull %10, ptr noundef nonnull %10, i64 noundef 32, ptr noundef nonnull %.8.val, ptr noundef %4, i32 noundef 0) #8
  call void @llvm.lifetime.start.p0(i64 512, ptr nonnull %11) #8
  call void @CRYPTO_poly1305_init(ptr noundef nonnull %11, ptr noundef nonnull %10) #8
  call void %0(ptr noundef nonnull %11, ptr noundef %7, i64 noundef %8, ptr noundef %1, i64 noundef range(i64 -255, 274877906880) %6) #8, !callees !14
  call void @CRYPTO_poly1305_finish(ptr noundef nonnull %11, ptr noundef nonnull %12) #8
  call void @llvm.lifetime.end.p0(i64 512, ptr nonnull %11) #8
  call void @llvm.lifetime.end.p0(i64 32, ptr nonnull %10) #8
  %23 = getelementptr inbounds nuw i8, ptr %1, i64 %6
  %24 = load i8, ptr %16, align 1, !tbaa !6
  %25 = zext i8 %24 to i64
  call void @llvm.memcpy.p0.p0.i64(ptr align 1 %23, ptr nonnull align 16 %12, i64 %25, i1 false)
  %26 = load i8, ptr %16, align 1, !tbaa !6
  %27 = zext i8 %26 to i64
  %28 = add nuw nsw i64 %6, %27
  store i64 %28, ptr %2, align 8, !tbaa !15
  call void @llvm.lifetime.end.p0(i64 16, ptr nonnull %12) #8
  br label %29

29:                                               ; preds = %22, %21, %14
  %.0 = phi i32 [ 0, %14 ], [ 0, %21 ], [ 1, %22 ]
  ret i32 %.0
}